; Function Attrs: nounwind uwtable
define ptr @l_Lean_ScopedEnvExtension_getState___rarg(ptr noundef %0, ptr noundef readonly captures(none) %1, ptr noundef %2, i8 noundef zeroext %3) local_unnamed_addr #2 {
  %5 = getelementptr inbounds nuw i8, ptr %1, i64 16
  %6 = load ptr, ptr %5, align 8, !tbaa !9
  %7 = load ptr, ptr @l_Lean_ScopedEnvExtension_getState___rarg___closed__1, align 8, !tbaa !9
  %8 = tail call ptr @l_Lean_PersistentEnvExtension_getState___rarg(ptr noundef %7, ptr noundef %6, ptr noundef %2, i8 noundef zeroext %3) #7
  %9 = getelementptr inbounds nuw i8, ptr %8, i64 8
  %10 = load ptr, ptr %9, align 8, !tbaa !9
  %11 = ptrtoint ptr %10 to i64
  %12 = and i64 %11, 1
  %.not = icmp eq i64 %12, 0
  br i1 %.not, label %13, label %lean_inc.exit21

13:                                               ; preds = %4
  %.val.i = load i32, ptr %10, align 4, !tbaa !4
  %14 = icmp sgt i32 %.val.i, 0
  br i1 %14, label %15, label %17, !prof !11

15:                                               ; preds = %13
  %16 = add nuw i32 %.val.i, 1
  store i32 %16, ptr %10, align 4, !tbaa !4
  br label %lean_inc.exit21

17:                                               ; preds = %13
  %.not.i31 = icmp eq i32 %.val.i, 0
  br i1 %.not.i31, label %lean_inc.exit21, label %18

18:                                               ; preds = %17
  tail call void @lean_inc_ref_cold(ptr noundef nonnull %10) #7
  br label %lean_inc.exit21

lean_inc.exit21:                                  ; preds = %18, %17, %15, %4
  %19 = ptrtoint ptr %8 to i64
  %20 = and i64 %19, 1
  %.not40 = icmp eq i64 %20, 0
  br i1 %.not40, label %21, label %lean_dec.exit24

21:                                               ; preds = %lean_inc.exit21
  %22 = load i32, ptr %8, align 4, !tbaa !4
  %23 = icmp sgt i32 %22, 1
  br i1 %23, label %24, label %26, !prof !11

24:                                               ; preds = %21
  %25 = add nsw i32 %22, -1
  store i32 %25, ptr %8, align 4, !tbaa !4
  br label %lean_dec.exit24

26:                                               ; preds = %21
  %.not.i = icmp eq i32 %22, 0
  br i1 %.not.i, label %lean_dec.exit24, label %27

27:                                               ; preds = %26
  tail call void @lean_dec_ref_cold(ptr noundef nonnull %8) #7
  br label %lean_dec.exit24

lean_dec.exit24:                                  ; preds = %27, %26, %24, %lean_inc.exit21
  br i1 %.not, label %31, label %28

28:                                               ; preds = %lean_dec.exit24
  %29 = lshr i64 %11, 1
  %30 = trunc i64 %29 to i32
  br label %lean_obj_tag.exit

31:                                               ; preds = %lean_dec.exit24
  %32 = getelementptr i8, ptr %10, i64 4
  %.val.i33 = load i32, ptr %32, align 4
  %33 = lshr i32 %.val.i33, 24
  br label %lean_obj_tag.exit

lean_obj_tag.exit:                                ; preds = %28, %31
  %.0.i = phi i32 [ %30, %28 ], [ %33, %31 ]
  %34 = icmp eq i32 %.0.i, 0
  br i1 %34, label %35, label %38

35:                                               ; preds = %lean_obj_tag.exit
  %36 = load ptr, ptr @l_Lean_ScopedEnvExtension_getState___rarg___closed__5, align 8, !tbaa !9
  %37 = tail call ptr @l_panic___rarg(ptr noundef %0, ptr noundef %36) #7
  br label %lean_dec.exit

38:                                               ; preds = %lean_obj_tag.exit
  %39 = ptrtoint ptr %0 to i64
  %40 = and i64 %39, 1
  %.not41 = icmp eq i64 %40, 0
  br i1 %.not41, label %41, label %lean_dec.exit23

41:                                               ; preds = %38
  %42 = load i32, ptr %0, align 4, !tbaa !4
  %43 = icmp sgt i32 %42, 1
  br i1 %43, label %44, label %46, !prof !11

44:                                               ; preds = %41
  %45 = add nsw i32 %42, -1
  store i32 %45, ptr %0, align 4, !tbaa !4
  br label %lean_dec.exit23

46:                                               ; preds = %41
  %.not.i25 = icmp eq i32 %42, 0
  br i1 %.not.i25, label %lean_dec.exit23, label %47

47:                                               ; preds = %46
  tail call void @lean_dec_ref_cold(ptr noundef nonnull %0) #7
  br label %lean_dec.exit23

lean_dec.exit23:                                  ; preds = %47, %46, %44, %38
  %48 = getelementptr inbounds nuw i8, ptr %10, i64 8
  %49 = load ptr, ptr %48, align 8, !tbaa !9
  %50 = ptrtoint ptr %49 to i64
  %51 = and i64 %50, 1
  %.not42 = icmp eq i64 %51, 0
  br i1 %.not42, label %52, label %lean_inc.exit20

52:                                               ; preds = %lean_dec.exit23
  %.val.i34 = load i32, ptr %49, align 4, !tbaa !4
  %53 = icmp sgt i32 %.val.i34, 0
  br i1 %53, label %54, label %56, !prof !11

54:                                               ; preds = %52
  %55 = add nuw i32 %.val.i34, 1
  store i32 %55, ptr %49, align 4, !tbaa !4
  br label %lean_inc.exit20

56:                                               ; preds = %52
  %.not.i35 = icmp eq i32 %.val.i34, 0
  br i1 %.not.i35, label %lean_inc.exit20, label %57

57:                                               ; preds = %56
  tail call void @lean_inc_ref_cold(ptr noundef nonnull %49) #7
  br label %lean_inc.exit20

lean_inc.exit20:                                  ; preds = %57, %56, %54, %lean_dec.exit23
  br i1 %.not, label %58, label %lean_dec.exit22

58:                                               ; preds = %lean_inc.exit20
  %59 = load i32, ptr %10, align 4, !tbaa !4
  %60 = icmp sgt i32 %59, 1
  br i1 %60, label %61, label %63, !prof !11

61:                                               ; preds = %58
  %62 = add nsw i32 %59, -1
  store i32 %62, ptr %10, align 4, !tbaa !4
  br label %lean_dec.exit22

63:                                               ; preds = %58
  %.not.i27 = icmp eq i32 %59, 0
  br i1 %.not.i27, label %lean_dec.exit22, label %64

64:                                               ; preds = %63
  tail call void @lean_dec_ref_cold(ptr noundef nonnull %10) #7
  br label %lean_dec.exit22

lean_dec.exit22:                                  ; preds = %64, %63, %61, %lean_inc.exit20
  %65 = getelementptr inbounds nuw i8, ptr %49, i64 8
  %66 = load ptr, ptr %65, align 8, !tbaa !9
  %67 = ptrtoint ptr %66 to i64
  %68 = and i64 %67, 1
  %.not43 = icmp eq i64 %68, 0
  br i1 %.not43, label %69, label %lean_inc.exit

69:                                               ; preds = %lean_dec.exit22
  %.val.i37 = load i32, ptr %66, align 4, !tbaa !4
  %70 = icmp sgt i32 %.val.i37, 0
  br i1 %70, label %71, label %73, !prof !11

71:                                               ; preds = %69
  %72 = add nuw i32 %.val.i37, 1
  store i32 %72, ptr %66, align 4, !tbaa !4
  br label %lean_inc.exit

73:                                               ; preds = %69
  %.not.i38 = icmp eq i32 %.val.i37, 0
  br i1 %.not.i38, label %lean_inc.exit, label %74

74:                                               ; preds = %73
  tail call void @lean_inc_ref_cold(ptr noundef nonnull %66) #7
  br label %lean_inc.exit

lean_inc.exit:                                    ; preds = %74, %73, %71, %lean_dec.exit22
  br i1 %.not42, label %75, label %lean_dec.exit

75:                                               ; preds = %lean_inc.exit
  %76 = load i32, ptr %49, align 4, !tbaa !4
  %77 = icmp sgt i32 %76, 1
  br i1 %77, label %78, label %80, !prof !11

78:                                               ; preds = %75
  %79 = add nsw i32 %76, -1
  store i32 %79, ptr %49, align 4, !tbaa !4
  br label %lean_dec.exit

80:                                               ; preds = %75
  %.not.i29 = icmp eq i32 %76, 0
  br i1 %.not.i29, label %lean_dec.exit, label %81

81:                                               ; preds = %80
  tail call void @lean_dec_ref_cold(ptr noundef nonnull %49) #7
  br label %lean_dec.exit

lean_dec.exit:                                    ; preds = %lean_inc.exit, %78, %80, %81, %35
  %.0 = phi ptr [ %37, %35 ], [ %66, %81 ], [ %66, %80 ], [ %66, %78 ], [ %66, %lean_inc.exit ]
  ret ptr %.0
}